; Function Attrs: null_pointer_is_valid sspstrong uwtable
define internal void @dtap_gmm_auth_ciph_rej(ptr noundef %0, ptr noundef %1, ptr noundef initializes((348, 352)) %2, i32 noundef %3, i32 noundef %4) #1 {
  %6 = getelementptr inbounds nuw i8, ptr %2, i64 348
  store i32 0, ptr %6, align 4
  %.not = icmp eq i32 %4, 0
  br i1 %.not, label %9, label %7

7:                                                ; preds = %5
  %8 = tail call ptr @proto_tree_add_expert(ptr noundef %1, ptr noundef %2, ptr noundef nonnull @ei_gsm_a_gm_extraneous_data, ptr noundef %0, i32 noundef %3, i32 noundef %4)
  br label %9

9:                                                ; preds = %7, %5
  ret void
}